target datalayout = "e-m:e-p270:32:32-p271:32:32-p272:64:64-i64:64-i128:128-f80:128-n8:16:32:64-S128"
target triple = "x86_64-pc-linux-gnu"

%"class.clang::SourceLocation" = type { i32 }
%"class.clang::CXXScopeSpec" = type { %"class.clang::SourceRange", %"class.clang::NestedNameSpecifierLocBuilder", %"class.llvm::ArrayRef" }
%"class.clang::SourceRange" = type { %"class.clang::SourceLocation", %"class.clang::SourceLocation" }
%"class.clang::NestedNameSpecifierLocBuilder" = type { ptr, ptr, i32, i32 }
%"class.llvm::ArrayRef" = type { ptr, i64 }
%"class.clang::ParsedAttributesView" = type { %"class.clang::SourceRange", %"class.llvm::SmallVector.342" }
%"class.llvm::SmallVector.342" = type { %"class.llvm::SmallVectorImpl.343", %"struct.llvm::SmallVectorStorage.346" }
%"class.llvm::SmallVectorImpl.343" = type { %"class.llvm::SmallVectorTemplateBase.344" }
%"class.llvm::SmallVectorTemplateBase.344" = type { %"class.llvm::SmallVectorTemplateCommon.345" }
%"class.llvm::SmallVectorTemplateCommon.345" = type { %"class.llvm::SmallVectorBase" }
%"class.llvm::SmallVectorBase" = type { ptr, i32, i32 }
%"struct.llvm::SmallVectorStorage.346" = type { [48 x i8] }
%"struct.clang::UnionOpaquePtr" = type { ptr }
%"class.clang::ParsedAttributes" = type { %"class.clang::ParsedAttributesView", %"class.clang::AttributePool" }
%"class.clang::AttributePool" = type { ptr, %"class.llvm::SmallVector.342" }
%"class.clang::DeclSpec" = type { i64, %union.anon.349, ptr, %"class.clang::ExplicitSpecifier", %"class.clang::ParsedAttributes", %"class.clang::CXXScopeSpec", %"class.clang::SourceRange", %"class.clang::SourceLocation", %"class.clang::SourceLocation", %"class.clang::SourceRange", %"class.clang::SourceLocation", %"class.clang::SourceLocation", %"class.clang::SourceLocation", %"class.clang::SourceLocation", %"class.clang::SourceLocation", %"class.clang::SourceLocation", %"class.clang::SourceLocation", %"class.clang::SourceRange", %"class.clang::SourceLocation", %"class.clang::SourceLocation", %"class.clang::SourceLocation", %"class.clang::SourceLocation", %"class.clang::SourceLocation", %"class.clang::SourceLocation", %"class.clang::SourceLocation", %"class.clang::SourceLocation", %"class.clang::SourceLocation", %"class.clang::SourceLocation", %"class.clang::SourceLocation", %"class.clang::SourceLocation", %"class.clang::SourceLocation", %"class.clang::SourceLocation", %"class.clang::SourceLocation", %"struct.clang::WrittenBuiltinSpecs", ptr }
%union.anon.349 = type { %"struct.clang::UnionOpaquePtr" }
%"class.clang::ExplicitSpecifier" = type { %"class.llvm::PointerIntPair.350" }
%"class.llvm::PointerIntPair.350" = type { %"struct.llvm::detail::PunnedPointer.351" }
%"struct.llvm::detail::PunnedPointer.351" = type { [8 x i8] }
%"struct.clang::WrittenBuiltinSpecs" = type { i16, [2 x i8] }

@.str.97 = private unnamed_addr constant [14 x i8] c"__forceinline\00", align 1

; Function Attrs: mustprogress nounwind uwtable
define dso_local noundef zeroext i1 @_ZN5clang8DeclSpec26setFunctionSpecForceInlineENS_14SourceLocationERPKcRj(ptr noundef nonnull align 8 dereferenceable(360) %0, i32 %1, ptr noundef nonnull align 8 dereferenceable(8) %2, ptr noundef nonnull align 4 dereferenceable(4) %3) #0 align 2 {
  %5 = alloca i1, align 1
  %6 = alloca %"class.clang::SourceLocation", align 4
  %7 = alloca ptr, align 8
  %8 = alloca ptr, align 8
  %9 = alloca ptr, align 8
  %10 = getelementptr inbounds nuw %"class.clang::SourceLocation", ptr %6, i32 0, i32 0
  store i32 %1, ptr %10, align 4
  store ptr %0, ptr %7, align 8
  store ptr %2, ptr %8, align 8
  store ptr %3, ptr %9, align 8
  %11 = load ptr, ptr %7, align 8
  %12 = load i64, ptr %11, align 8
  %13 = lshr i64 %12, 32
  %14 = and i64 %13, 1
  %15 = trunc i64 %14 to i32
  %16 = icmp ne i32 %15, 0
  br i1 %16, label %17, label %20

17:                                               ; preds = %4
  %18 = load ptr, ptr %9, align 8
  store i32 141, ptr %18, align 4
  %19 = load ptr, ptr %8, align 8
  store ptr @.str.97, ptr %19, align 8
  store i1 true, ptr %5, align 1
  br label %25

20:                                               ; preds = %4
  %21 = load i64, ptr %11, align 8
  %22 = and i64 %21, -4294967297
  %23 = or i64 %22, 4294967296
  store i64 %23, ptr %11, align 8
  %24 = getelementptr inbounds nuw %"class.clang::DeclSpec", ptr %11, i32 0, i32 28
  call void @llvm.memcpy.p0.p0.i64(ptr align 4 %24, ptr align 4 %6, i64 4, i1 false)
  store i1 false, ptr %5, align 1
  br label %25

25:                                               ; preds = %20, %17
  %26 = load i1, ptr %5, align 1
  ret i1 %26
}